; Function Attrs: nofree nosync nounwind memory(readwrite, inaccessiblemem: none) uwtable
define void @Cec_ManPatComputePattern4_rec(ptr noundef readonly captures(none) %0, ptr noundef %1) local_unnamed_addr #3 {
  %3 = getelementptr inbounds nuw i8, ptr %0, i64 616
  %4 = getelementptr i8, ptr %0, i64 32
  %5 = getelementptr inbounds nuw i8, ptr %0, i64 176
  %6 = load ptr, ptr %3, align 8, !tbaa !3
  %.val.i14 = load ptr, ptr %4, align 8, !tbaa !28
  %7 = ptrtoint ptr %1 to i64
  %8 = ptrtoint ptr %.val.i14 to i64
  %9 = sub i64 %7, %8
  %10 = sdiv exact i64 %9, 12
  %sext.i15 = shl i64 %10, 32
  %11 = ashr exact i64 %sext.i15, 30
  %12 = getelementptr inbounds i8, ptr %6, i64 %11
  %13 = load i32, ptr %12, align 4, !tbaa !29
  %14 = load i32, ptr %5, align 8, !tbaa !30
  %.not16 = icmp eq i32 %13, %14
  br i1 %.not16, label %._crit_edge, label %.lr.ph

.lr.ph:                                           ; preds = %2, %tailrecurse
  %15 = phi i32 [ %36, %tailrecurse ], [ %14, %2 ]
  %16 = phi ptr [ %34, %tailrecurse ], [ %12, %2 ]
  %.tr1317 = phi ptr [ %27, %tailrecurse ], [ %1, %2 ]
  store i32 %15, ptr %16, align 4, !tbaa !29
  %17 = load i64, ptr %.tr1317, align 4
  %18 = and i64 %17, -1073741825
  store i64 %18, ptr %.tr1317, align 4
  %19 = and i64 %17, 2684354559
  %narrow.i.not = icmp eq i64 %19, 2684354559
  br i1 %narrow.i.not, label %._crit_edge, label %tailrecurse

tailrecurse:                                      ; preds = %.lr.ph
  %20 = and i64 %17, 536870911
  %21 = sub nsw i64 0, %20
  %22 = getelementptr inbounds %struct.Gia_Obj_t_, ptr %.tr1317, i64 %21
  tail call void @Cec_ManPatComputePattern4_rec(ptr noundef nonnull %0, ptr noundef nonnull %22)
  %23 = load i64, ptr %.tr1317, align 4
  %24 = lshr i64 %23, 32
  %25 = and i64 %24, 536870911
  %26 = sub nsw i64 0, %25
  %27 = getelementptr inbounds %struct.Gia_Obj_t_, ptr %.tr1317, i64 %26
  %28 = load ptr, ptr %3, align 8, !tbaa !3
  %.val.i = load ptr, ptr %4, align 8, !tbaa !28
  %29 = ptrtoint ptr %27 to i64
  %30 = ptrtoint ptr %.val.i to i64
  %31 = sub i64 %29, %30
  %32 = sdiv exact i64 %31, 12
  %sext.i = shl i64 %32, 32
  %33 = ashr exact i64 %sext.i, 30
  %34 = getelementptr inbounds i8, ptr %28, i64 %33
  %35 = load i32, ptr %34, align 4, !tbaa !29
  %36 = load i32, ptr %5, align 8, !tbaa !30
  %.not = icmp eq i32 %35, %36
  br i1 %.not, label %._crit_edge, label %.lr.ph

._crit_edge:                                      ; preds = %tailrecurse, %.lr.ph, %2
  ret void
}